target datalayout = "e-m:e-p270:32:32-p271:32:32-p272:64:64-i64:64-i128:128-f80:128-n8:16:32:64-S128"
target triple = "x86_64-pc-linux-gnu"

%struct._PQconninfoOption = type { ptr, ptr, ptr, ptr, ptr, ptr, i32 }

@.str = private unnamed_addr constant [14 x i8] c"out of memory\00", align 1
@.str.19 = private unnamed_addr constant [7 x i8] c"prefer\00", align 1
@.str.20 = private unnamed_addr constant [8 x i8] c"require\00", align 1
@.str.28 = private unnamed_addr constant [8 x i8] c"sslmode\00", align 1
@.str.247 = private unnamed_addr constant [31 x i8] c"invalid connection option \22%s\22\00", align 1
@.str.260 = private unnamed_addr constant [11 x i8] c"requiressl\00", align 1

; Function Attrs: nounwind uwtable
define internal ptr @conninfo_find(ptr noundef %0, ptr noundef %1) #0 {
  %3 = alloca ptr, align 8
  %4 = alloca ptr, align 8
  %5 = alloca ptr, align 8
  %6 = alloca ptr, align 8
  %7 = alloca i32, align 4
  store ptr %0, ptr %4, align 8
  store ptr %1, ptr %5, align 8
  call void @llvm.lifetime.start.p0(i64 8, ptr %6) #12
  %8 = load ptr, ptr %4, align 8
  store ptr %8, ptr %6, align 8
  br label %9

9:                                                ; preds = %24, %2
  %10 = load ptr, ptr %6, align 8
  %11 = getelementptr inbounds nuw %struct._PQconninfoOption, ptr %10, i32 0, i32 0
  %12 = load ptr, ptr %11, align 8
  %13 = icmp ne ptr %12, null
  br i1 %13, label %14, label %27

14:                                               ; preds = %9
  %15 = load ptr, ptr %6, align 8
  %16 = getelementptr inbounds nuw %struct._PQconninfoOption, ptr %15, i32 0, i32 0
  %17 = load ptr, ptr %16, align 8
  %18 = load ptr, ptr %5, align 8
  %19 = call i32 @strcmp(ptr noundef %17, ptr noundef %18) #13
  %20 = icmp eq i32 %19, 0
  br i1 %20, label %21, label %23

21:                                               ; preds = %14
  %22 = load ptr, ptr %6, align 8
  store ptr %22, ptr %3, align 8
  store i32 1, ptr %7, align 4
  br label %28

23:                                               ; preds = %14
  br label %24

24:                                               ; preds = %23
  %25 = load ptr, ptr %6, align 8
  %26 = getelementptr inbounds nuw %struct._PQconninfoOption, ptr %25, i32 1
  store ptr %26, ptr %6, align 8
  br label %9, !llvm.loop !48

27:                                               ; preds = %9
  store ptr null, ptr %3, align 8
  store i32 1, ptr %7, align 4
  br label %28

28:                                               ; preds = %27, %21
  call void @llvm.lifetime.end.p0(i64 8, ptr %6) #12
  %29 = load ptr, ptr %3, align 8
  ret ptr %29
}

; Function Attrs: nounwind uwtable
define internal ptr @conninfo_storeval(ptr noundef %0, ptr noundef %1, ptr noundef %2, ptr noundef %3, i1 noundef zeroext %4, i1 noundef zeroext %5) #0 {
  %7 = alloca ptr, align 8
  %8 = alloca ptr, align 8
  %9 = alloca ptr, align 8
  %10 = alloca ptr, align 8
  %11 = alloca ptr, align 8
  %12 = alloca i8, align 1
  %13 = alloca i8, align 1
  %14 = alloca ptr, align 8
  %15 = alloca ptr, align 8
  %16 = alloca i32, align 4
  store ptr %0, ptr %8, align 8
  store ptr %1, ptr %9, align 8
  store ptr %2, ptr %10, align 8
  store ptr %3, ptr %11, align 8
  %17 = zext i1 %4 to i8
  store i8 %17, ptr %12, align 1
  %18 = zext i1 %5 to i8
  store i8 %18, ptr %13, align 1
  call void @llvm.lifetime.start.p0(i64 8, ptr %14) #12
  call void @llvm.lifetime.start.p0(i64 8, ptr %15) #12
  %19 = load ptr, ptr %9, align 8
  %20 = call i32 @strcmp(ptr noundef %19, ptr noundef @.str.260) #13
  %21 = icmp eq i32 %20, 0
  br i1 %21, label %22, label %31

22:                                               ; preds = %6
  store ptr @.str.28, ptr %9, align 8
  %23 = load ptr, ptr %10, align 8
  %24 = getelementptr inbounds i8, ptr %23, i64 0
  %25 = load i8, ptr %24, align 1
  %26 = sext i8 %25 to i32
  %27 = icmp eq i32 %26, 49
  br i1 %27, label %28, label %29

28:                                               ; preds = %22
  store ptr @.str.20, ptr %10, align 8
  br label %30

29:                                               ; preds = %22
  store ptr @.str.19, ptr %10, align 8
  br label %30

30:                                               ; preds = %29, %28
  br label %31

31:                                               ; preds = %30, %6
  %32 = load ptr, ptr %8, align 8
  %33 = load ptr, ptr %9, align 8
  %34 = call ptr @conninfo_find(ptr noundef %32, ptr noundef %33)
  store ptr %34, ptr %14, align 8
  %35 = load ptr, ptr %14, align 8
  %36 = icmp eq ptr %35, null
  br i1 %36, label %37, label %44

37:                                               ; preds = %31
  %38 = load i8, ptr %12, align 1, !range !3, !noundef !4
  %39 = trunc i8 %38 to i1
  br i1 %39, label %43, label %40

40:                                               ; preds = %37
  %41 = load ptr, ptr %11, align 8
  %42 = load ptr, ptr %9, align 8
  call void (ptr, ptr, ...) @libpq_append_error(ptr noundef %41, ptr noundef @.str.247, ptr noundef %42)
  br label %43

43:                                               ; preds = %40, %37
  store ptr null, ptr %7, align 8
  store i32 1, ptr %16, align 4
  br label %71

44:                                               ; preds = %31
  %45 = load i8, ptr %13, align 1, !range !3, !noundef !4
  %46 = trunc i8 %45 to i1
  br i1 %46, label %47, label %55

47:                                               ; preds = %44
  %48 = load ptr, ptr %10, align 8
  %49 = load ptr, ptr %11, align 8
  %50 = call ptr @conninfo_uri_decode(ptr noundef %48, ptr noundef %49)
  store ptr %50, ptr %15, align 8
  %51 = load ptr, ptr %15, align 8
  %52 = icmp eq ptr %51, null
  br i1 %52, label %53, label %54

53:                                               ; preds = %47
  store ptr null, ptr %7, align 8
  store i32 1, ptr %16, align 4
  br label %71

54:                                               ; preds = %47
  br label %63

55:                                               ; preds = %44
  %56 = load ptr, ptr %10, align 8
  %57 = call noalias ptr @strdup(ptr noundef %56) #12
  store ptr %57, ptr %15, align 8
  %58 = load ptr, ptr %15, align 8
  %59 = icmp eq ptr %58, null
  br i1 %59, label %60, label %62

60:                                               ; preds = %55
  %61 = load ptr, ptr %11, align 8
  call void (ptr, ptr, ...) @libpq_append_error(ptr noundef %61, ptr noundef @.str)
  store ptr null, ptr %7, align 8
  store i32 1, ptr %16, align 4
  br label %71

62:                                               ; preds = %55
  br label %63

63:                                               ; preds = %62, %54
  %64 = load ptr, ptr %14, align 8
  %65 = getelementptr inbounds nuw %struct._PQconninfoOption, ptr %64, i32 0, i32 3
  %66 = load ptr, ptr %65, align 8
  call void @free(ptr noundef %66) #12
  %67 = load ptr, ptr %15, align 8
  %68 = load ptr, ptr %14, align 8
  %69 = getelementptr inbounds nuw %struct._PQconninfoOption, ptr %68, i32 0, i32 3
  store ptr %67, ptr %69, align 8
  %70 = load ptr, ptr %14, align 8
  store ptr %70, ptr %7, align 8
  store i32 1, ptr %16, align 4
  br label %71

71:                                               ; preds = %63, %60, %53, %43
  call void @llvm.lifetime.end.p0(i64 8, ptr %15) #12
  call void @llvm.lifetime.end.p0(i64 8, ptr %14) #12
  %72 = load ptr, ptr %7, align 8
  ret ptr %72
}