; Function Attrs: nounwind uwtable
define internal fastcc noundef ptr @conninfo_storeval(ptr noundef nonnull captures(ret: address, provenance) %0, ptr noundef %1, ptr noundef %2, ptr noundef nonnull %3, i1 noundef zeroext %4, i1 noundef zeroext %5) unnamed_addr #0 {
  %7 = tail call i32 @strcmp(ptr noundef nonnull dereferenceable(1) %1, ptr noundef nonnull dereferenceable(11) @.str.260) #26
  %8 = icmp eq i32 %7, 0
  br i1 %8, label %9, label %12

9:                                                ; preds = %6
  %10 = load i8, ptr %2, align 1
  %11 = icmp eq i8 %10, 49
  %.str.20..str.19 = select i1 %11, ptr @.str.20, ptr @.str.19
  br label %12

12:                                               ; preds = %9, %6
  %.021 = phi ptr [ %2, %6 ], [ %.str.20..str.19, %9 ]
  %.020 = phi ptr [ %1, %6 ], [ @.str.28, %9 ]
  %13 = load ptr, ptr %0, align 8
  %.not9.i = icmp eq ptr %13, null
  br i1 %.not9.i, label %.loopexit, label %.lr.ph.i

.lr.ph.i:                                         ; preds = %12, %17
  %14 = phi ptr [ %19, %17 ], [ %13, %12 ]
  %.010.i = phi ptr [ %18, %17 ], [ %0, %12 ]
  %15 = tail call i32 @strcmp(ptr noundef nonnull dereferenceable(1) %14, ptr noundef nonnull readonly dereferenceable(1) %.020) #26
  %16 = icmp eq i32 %15, 0
  br i1 %16, label %conninfo_find.exit, label %17

17:                                               ; preds = %.lr.ph.i
  %18 = getelementptr inbounds nuw i8, ptr %.010.i, i64 56
  %19 = load ptr, ptr %18, align 8
  %.not.i = icmp eq ptr %19, null
  br i1 %.not.i, label %.loopexit, label %.lr.ph.i, !llvm.loop !11

.loopexit:                                        ; preds = %17, %12
  br i1 %4, label %31, label %20

20:                                               ; preds = %.loopexit
  tail call void (ptr, ptr, ...) @libpq_append_error(ptr noundef nonnull %3, ptr noundef nonnull @.str.247, ptr noundef nonnull %.020) #25
  br label %31

conninfo_find.exit:                               ; preds = %.lr.ph.i
  br i1 %5, label %21, label %24

21:                                               ; preds = %conninfo_find.exit
  %22 = tail call fastcc ptr @conninfo_uri_decode(ptr noundef %.021, ptr noundef %3)
  %23 = icmp eq ptr %22, null
  br i1 %23, label %31, label %28

24:                                               ; preds = %conninfo_find.exit
  %25 = tail call noalias ptr @strdup(ptr noundef %.021) #25
  %26 = icmp eq ptr %25, null
  br i1 %26, label %27, label %28

27:                                               ; preds = %24
  tail call void (ptr, ptr, ...) @libpq_append_error(ptr noundef nonnull %3, ptr noundef nonnull @.str) #25
  br label %31

28:                                               ; preds = %24, %21
  %.0 = phi ptr [ %22, %21 ], [ %25, %24 ]
  %29 = getelementptr inbounds nuw i8, ptr %.010.i, i64 24
  %30 = load ptr, ptr %29, align 8
  tail call void @free(ptr noundef %30) #25
  store ptr %.0, ptr %29, align 8
  br label %31

31:                                               ; preds = %21, %.loopexit, %20, %28, %27
  %.019 = phi ptr [ %.010.i, %28 ], [ null, %27 ], [ null, %20 ], [ null, %.loopexit ], [ null, %21 ]
  ret ptr %.019
}